(dp1
S'1'
(dp2
S'nr'
p3
I1
sS'lastValid'
p4
(dp5
sS'values'
p6
(dp7
sS'slaves'
p8
(lp9
sS'times'
p10
(lp11
ssS'3'
(dp12
g3
I3
sg4
(dp13
S'p'
I01
sS'Uy'
p14
I01
sS'Ux'
p15
I01
ssg6
(dp16
S'p'
(lp17
F220
aF197
aF206
aF208
aF207
aF208
aF207
aF208
aF207
aF208
aF207
aF208
aF207
aF208
aF207
aF208
aF207
aF208
aF207
aF208
aF207
aF208
aF207
aF208
aF207
aF208
aF207
aF208
aF207
aF208
aF207
aF208
aF207
aF208
aF207
aF207
aF208
aF207
aF207
aF207
aF207
aF207
aF208
aF207
aF207
aF207
aF207
aF207
aF207
aF207
aF207
aF207
aF207
aF207
aF207
aF207
aF207
aF207
aF207
aF207
aF207
aF207
aF207
aF207
aF207
aF207
aF207
aF207
aF207
aF207
aF207
aF207
aF207
aF207
aF207
aF207
aF207
aF207
aF207
aF207
aF207
aF207
aF207
aF207
aF207
aF207
aF207
aF207
aF207
aF207
aF207
aF207
aF207
aF207
aF207
aF207
aF207
aF207
aF207
aF207
aF207
aF207
aF207
aF207
aF207
aF207
aF207
aF207
aF207
aF207
aF207
aF207
aF207
aF207
aF207
aF207
aF207
aF207
aF207
aF207
aF207
aF207
aF207
aF207
aF207
aF207
aF207
aF207
aF207
aF207
aF207
aF207
aF207
aF207
aF208
aF207
aF208
aF207
aF208
aF207
aF208
aF207
aF207
aF207
aF100
asg14
(lp18
F2
aF2
aF2
aF2
aF2
aF2
aF2
aF2
aF2
aF2
aF2
aF2
aF2
aF2
aF2
aF2
aF2
aF2
aF2
aF2
aF2
aF2
aF2
aF2
aF2
aF2
aF2
aF2
aF2
aF2
aF2
aF2
aF2
aF2
aF2
aF2
aF2
aF2
aF2
aF2
aF2
aF2
aF2
aF2
aF2
aF2
aF2
aF2
aF2
aF2
aF2
aF2
aF2
aF2
aF2
aF2
aF2
aF2
aF2
aF2
aF2
aF2
aF2
aF2
aF2
aF2
aF2
aF2
aF2
aF2
aF2
aF2
aF2
aF2
aF2
aF2
aF2
aF2
aF2
aF2
aF2
aF2
aF2
aF2
aF2
aF2
aF2
aF2
aF2
aF2
aF2
aF2
aF2
aF2
aF2
aF2
aF2
aF2
aF2
aF2
aF2
aF2
aF2
aF2
aF2
aF2
aF2
aF2
aF2
aF2
aF2
aF2
aF2
aF2
aF2
aF2
aF2
aF2
aF2
aF2
aF2
aF2
aF2
aF2
aF2
aF2
aF2
aF2
aF2
aF2
aF2
aF2
aF2
aF2
aF2
aF2
aF2
aF2
aF2
aF2
aF2
aF2
aF2
aF2
aF2
asg15
(lp19
F2
aF2
aF2
aF2
aF2
aF2
aF2
aF2
aF2
aF2
aF2
aF2
aF2
aF2
aF2
aF2
aF2
aF2
aF2
aF2
aF2
aF2
aF2
aF2
aF2
aF2
aF2
aF2
aF2
aF2
aF2
aF2
aF2
aF2
aF2
aF2
aF2
aF2
aF2
aF2
aF2
aF2
aF2
aF2
aF2
aF2
aF2
aF2
aF2
aF2
aF2
aF2
aF2
aF2
aF2
aF2
aF2
aF2
aF2
aF2
aF2
aF2
aF2
aF2
aF2
aF2
aF2
aF2
aF2
aF2
aF2
aF2
aF2
aF2
aF2
aF2
aF2
aF2
aF2
aF2
aF2
aF2
aF2
aF2
aF2
aF2
aF2
aF2
aF2
aF2
aF2
aF2
aF2
aF2
aF2
aF2
aF2
aF2
aF2
aF2
aF2
aF2
aF2
aF2
aF2
aF2
aF2
aF2
aF2
aF2
aF2
aF2
aF2
aF2
aF2
aF2
aF2
aF2
aF2
aF2
aF2
aF2
aF2
aF2
aF2
aF2
aF2
aF2
aF2
aF2
aF2
aF2
aF2
aF2
aF2
aF2
aF2
aF2
aF2
aF2
aF2
aF2
aF2
aF2
aF2
assg8
(lp20
sg10
(lp21
F3.0005000000000002
aF3.0009999999999999
aF3.0015000000000001
aF3.0019999999999998
aF3.0024999999999999
aF3.0030000000000001
aF3.0034999999999998
aF3.004
aF3.0045000000000002
aF3.0049999999999999
aF3.0055000000000001
aF3.0059999999999998
aF3.0065
aF3.0070000000000001
aF3.0074999999999998
aF3.008
aF3.0085000000000002
aF3.0089999999999999
aF3.0095000000000001
aF3.0099999999999998
aF3.0105
aF3.0110000000000001
aF3.0114999999999998
aF3.012
aF3.0125000000000002
aF3.0129999999999999
aF3.0135000000000001
aF3.0139999999999998
aF3.0145
aF3.0150000000000001
aF3.0154999999999998
aF3.016
aF3.0165000000000002
aF3.0169999999999999
aF3.0175000000000001
aF3.0179999999999998
aF3.0185
aF3.0190000000000001
aF3.0194999999999999
aF3.02
aF3.0205000000000002
aF3.0209999999999999
aF3.0215000000000001
aF3.0219999999999998
aF3.0225
aF3.0230000000000001
aF3.0234999999999999
aF3.024
aF3.0245000000000002
aF3.0249999999999999
aF3.0255000000000001
aF3.0259999999999998
aF3.0265
aF3.0270000000000001
aF3.0274999999999999
aF3.028
aF3.0285000000000002
aF3.0289999999999999
aF3.0295000000000001
aF3.0299999999999998
aF3.0305
aF3.0310000000000001
aF3.0314999999999999
aF3.032
aF3.0325000000000002
aF3.0329999999999999
aF3.0335000000000001
aF3.0339999999999998
aF3.0345
aF3.0350000000000001
aF3.0354999999999999
aF3.036
aF3.0365000000000002
aF3.0369999999999999
aF3.0375000000000001
aF3.0379999999999998
aF3.0385
aF3.0390000000000001
aF3.0394999999999999
aF3.04
aF3.0405000000000002
aF3.0409999999999999
aF3.0415000000000001
aF3.0419999999999998
aF3.0425
aF3.0430000000000001
aF3.0434999999999999
aF3.044
aF3.0445000000000002
aF3.0449999999999999
aF3.0455000000000001
aF3.0459999999999998
aF3.0465
aF3.0470000000000002
aF3.0474999999999999
aF3.048
aF3.0485000000000002
aF3.0489999999999999
aF3.0495000000000001
aF3.0499999999999998
aF3.0505
aF3.0510000000000002
aF3.0514999999999999
aF3.052
aF3.0525000000000002
aF3.0529999999999999
aF3.0535000000000001
aF3.0539999999999998
aF3.0545
aF3.0550000000000002
aF3.0554999999999999
aF3.056
aF3.0565000000000002
aF3.0569999999999999
aF3.0575000000000001
aF3.0579999999999998
aF3.0585
aF3.0590000000000002
aF3.0594999999999999
aF3.0600000000000001
aF3.0605000000000002
aF3.0609999999999999
aF3.0615000000000001
aF3.0619999999999998
aF3.0625
aF3.0630000000000002
aF3.0634999999999999
aF3.0640000000000001
aF3.0644999999999998
aF3.0649999999999999
aF3.0655000000000001
aF3.0659999999999998
aF3.0665
aF3.0670000000000002
aF3.0674999999999999
aF3.0680000000000001
aF3.0684999999999998
aF3.069
aF3.0695000000000001
aF3.0699999999999998
aF3.0705
aF3.0710000000000002
aF3.0714999999999999
aF3.0720000000000001
aF3.0724999999999998
assS'2'
(dp22
g3
I2
sg4
(dp23
S'p_final'
p24
I01
sS'Ux_iterations'
p25
I01
sS'Uy'
p26
I01
sS'Ux'
p27
I01
sS'p_iterations'
p28
I01
sS'p'
I01
sS'Ux_final'
p29
I01
sS'Uy_final'
p30
I01
sS'Uy_iterations'
p31
I01
ssg6
(dp32
g24
(lp33
F9.9421253000000005e-08
aF9.7560521999999996e-08
aF9.9775927000000006e-08
aF9.9669229000000001e-08
aF9.9780411999999996e-08
aF9.9185582999999995e-08
aF9.9620005000000006e-08
aF9.9235928999999997e-08
aF9.9689669000000005e-08
aF9.9270260999999995e-08
aF9.9695977000000004e-08
aF9.9259259000000002e-08
aF9.9672054999999995e-08
aF9.9227964999999999e-08
aF9.9639875999999998e-08
aF9.9201055000000004e-08
aF9.9621074999999997e-08
aF9.9191244000000003e-08
aF9.9618162999999995e-08
aF9.9192663000000002e-08
aF9.9623434000000004e-08
aF9.9197787999999998e-08
aF9.9621807999999995e-08
aF9.9190817000000002e-08
aF9.9612526999999998e-08
aF9.9179231999999999e-08
aF9.9600069999999994e-08
aF9.9168471000000006e-08
aF9.9590403e-08
aF9.9160429000000004e-08
aF9.9587191999999999e-08
aF9.9160834999999994e-08
aF9.9592075000000003e-08
aF9.9171894999999999e-08
aF9.9602120000000006e-08
aF9.9779979000000001e-08
aF9.9167817000000003e-08
aF9.9549754999999999e-08
aF9.9765543000000005e-08
aF9.9768324999999998e-08
aF9.9730120000000006e-08
aF9.9696091999999998e-08
aF9.9176231999999995e-08
aF9.9412849e-08
aF9.9783427000000001e-08
aF9.9641508000000002e-08
aF9.9507697999999996e-08
aF9.9695182999999996e-08
aF9.9563114000000006e-08
aF9.9470846000000002e-08
aF9.9436515999999997e-08
aF9.9430243000000006e-08
aF9.9421454000000006e-08
aF9.9415496999999997e-08
aF9.9408843e-08
aF9.9401718000000002e-08
aF9.9399048000000004e-08
aF9.9403131000000005e-08
aF9.9413095000000005e-08
aF9.9426163000000002e-08
aF9.9438299999999996e-08
aF9.9446392999999999e-08
aF9.9449299999999996e-08
aF9.9447421999999999e-08
aF9.9441990000000001e-08
aF9.9434742999999997e-08
aF9.9428474999999998e-08
aF9.9424256000000006e-08
aF9.9422562000000002e-08
aF9.9421538999999997e-08
aF9.9421531999999998e-08
aF9.9423566000000005e-08
aF9.9426977999999994e-08
aF9.9428571000000002e-08
aF9.9428681999999994e-08
aF9.9428966000000006e-08
aF9.9430081e-08
aF9.9432005000000005e-08
aF9.9432286000000005e-08
aF9.9431392999999995e-08
aF9.9430279000000004e-08
aF9.9429549000000003e-08
aF9.9428742e-08
aF9.9427725999999994e-08
aF9.9426667000000004e-08
aF9.9425518000000005e-08
aF9.9424296000000006e-08
aF9.9425369999999997e-08
aF9.9425703000000001e-08
aF9.9424917999999999e-08
aF9.9423803999999995e-08
aF9.9422679000000003e-08
aF9.9421445e-08
aF9.9420092000000002e-08
aF9.9418673000000003e-08
aF9.9417261000000003e-08
aF9.9415925000000001e-08
aF9.9414828000000005e-08
aF9.9413857999999994e-08
aF9.9412978000000004e-08
aF9.9412194999999996e-08
aF9.9411503000000001e-08
aF9.9410890000000001e-08
aF9.9410464000000004e-08
aF9.9410180999999996e-08
aF9.9410018000000001e-08
aF9.9409945e-08
aF9.9409928999999995e-08
aF9.9410252000000002e-08
aF9.9412984e-08
aF9.9414126e-08
aF9.9414029000000005e-08
aF9.9413269000000001e-08
aF9.9411782999999997e-08
aF9.9409535999999999e-08
aF9.9406550999999997e-08
aF9.9402849000000002e-08
aF9.9398490999999995e-08
aF9.9393834999999994e-08
aF9.9389040000000004e-08
aF9.9384257999999995e-08
aF9.9379769000000003e-08
aF9.9375781000000002e-08
aF9.9372318e-08
aF9.9369324999999996e-08
aF9.9366791000000002e-08
aF9.9364779999999999e-08
aF9.9363381999999997e-08
aF9.9362765999999999e-08
aF9.9363329999999994e-08
aF9.9366347999999996e-08
aF9.9376231999999997e-08
aF9.9431633000000005e-08
aF9.9747235999999996e-08
aF9.9209497000000001e-08
aF9.9653438e-08
aF9.9311613999999999e-08
aF9.9738598000000002e-08
aF9.9319103999999998e-08
aF9.9711364999999999e-08
aF9.9236201999999994e-08
aF9.9643288e-08
aF9.9804458999999996e-08
aF9.9797610000000006e-08
aF2.1275941000000001e-07
asg25
(lp34
F2
aF2
aF2
aF2
aF2
aF2
aF2
aF2
aF2
aF2
aF2
aF2
aF2
aF2
aF2
aF2
aF2
aF2
aF2
aF2
aF2
aF2
aF2
aF2
aF2
aF2
aF2
aF2
aF2
aF2
aF2
aF2
aF2
aF2
aF2
aF2
aF2
aF2
aF2
aF2
aF2
aF2
aF2
aF2
aF2
aF2
aF2
aF2
aF2
aF2
aF2
aF2
aF2
aF2
aF2
aF2
aF2
aF2
aF2
aF2
aF2
aF2
aF2
aF2
aF2
aF2
aF2
aF2
aF2
aF2
aF2
aF2
aF2
aF2
aF2
aF2
aF2
aF2
aF2
aF2
aF2
aF2
aF2
aF2
aF2
aF2
aF2
aF2
aF2
aF2
aF2
aF2
aF2
aF2
aF2
aF2
aF2
aF2
aF2
aF2
aF2
aF2
aF2
aF2
aF2
aF2
aF2
aF2
aF2
aF2
aF2
aF2
aF2
aF2
aF2
aF2
aF2
aF2
aF2
aF2
aF2
aF2
aF2
aF2
aF2
aF2
aF2
aF2
aF2
aF2
aF2
aF2
aF2
aF2
aF2
aF2
aF2
aF2
aF2
aF2
aF2
aF2
aF2
aF2
aF2
asg26
(lp35
F3.6830745999999999e-05
aF3.6827859000000001e-05
aF3.6823833000000002e-05
aF3.6820311000000001e-05
aF3.6816799e-05
aF3.6813295999999998e-05
aF3.6809805999999998e-05
aF3.6806325000000002e-05
aF3.6802847999999997e-05
aF3.6799367999999998e-05
aF3.6795897999999999e-05
aF3.6792424000000003e-05
aF3.6788946000000002e-05
aF3.6785459000000003e-05
aF3.6781991000000003e-05
aF3.6778522000000001e-05
aF3.6775067000000003e-05
aF3.6771609999999999e-05
aF3.6768155000000002e-05
aF3.6764701e-05
aF3.6761243999999997e-05
aF3.6757787e-05
aF3.6754342999999999e-05
aF3.6750891999999999e-05
aF3.6747449000000001e-05
aF3.6744015e-05
aF3.6740587000000003e-05
aF3.6737153000000003e-05
aF3.6733714999999998e-05
aF3.6730270999999997e-05
aF3.6726826e-05
aF3.6723378000000001e-05
aF3.6719927000000001e-05
aF3.6716469000000002e-05
aF3.6713008999999997e-05
aF3.6709542e-05
aF3.6706075000000002e-05
aF3.6702607000000002e-05
aF3.6699146999999998e-05
aF3.6695686999999999e-05
aF3.6692235000000003e-05
aF3.6688779000000003e-05
aF3.6685323000000002e-05
aF3.6681872000000002e-05
aF3.6678370999999998e-05
aF3.6674834000000003e-05
aF3.6671280999999997e-05
aF3.6667717000000001e-05
aF3.6664152000000002e-05
aF3.6660586000000001e-05
aF3.6657016999999998e-05
aF3.6653448000000002e-05
aF3.6649873999999998e-05
aF3.6646298000000003e-05
aF3.6642720000000002e-05
aF3.6639139e-05
aF3.6635557000000001e-05
aF3.6631977000000001e-05
aF3.6628390000000003e-05
aF3.6624798999999999e-05
aF3.6621212e-05
aF3.6617623000000003e-05
aF3.6614037e-05
aF3.6610453000000003e-05
aF3.6606872e-05
aF3.6603287e-05
aF3.6599700000000001e-05
aF3.6596115999999997e-05
aF3.6592547999999997e-05
aF3.6588987000000003e-05
aF3.6585431000000002e-05
aF3.6581875999999997e-05
aF3.6578320000000003e-05
aF3.6574769999999999e-05
aF3.6571237000000001e-05
aF3.6567716000000003e-05
aF3.6564199000000002e-05
aF3.6560682999999997e-05
aF3.6557158999999997e-05
aF3.6553651999999997e-05
aF3.6550152000000003e-05
aF3.6546647999999998e-05
aF3.6543147000000001e-05
aF3.6539650000000002e-05
aF3.6536148000000002e-05
aF3.6532645e-05
aF3.6529148e-05
aF3.6525653e-05
aF3.6522157000000003e-05
aF3.6518678e-05
aF3.6515208000000001e-05
aF3.6511743999999998e-05
aF3.6508277000000001e-05
aF3.6504811e-05
aF3.6501344000000003e-05
aF3.6497876999999999e-05
aF3.6494403999999998e-05
aF3.6490934e-05
aF3.6487460000000003e-05
aF3.6483991e-05
aF3.6480531999999998e-05
aF3.6477068000000003e-05
aF3.6473600999999999e-05
aF3.6470129000000001e-05
aF3.6466651e-05
aF3.6463167999999999e-05
aF3.6459691000000001e-05
aF3.6456223000000001e-05
aF3.6452755999999997e-05
aF3.6449284e-05
aF3.6445812000000002e-05
aF3.6442342000000003e-05
aF3.6438869000000003e-05
aF3.6435398999999997e-05
aF3.6431932e-05
aF3.6428467000000002e-05
aF3.6425002999999999e-05
aF3.6421546000000003e-05
aF3.6418095999999999e-05
aF3.6414641999999997e-05
aF3.6411183999999997e-05
aF3.6407729e-05
aF3.6404272000000003e-05
aF3.6400818999999997e-05
aF3.6397372999999998e-05
aF3.6393924999999999e-05
aF3.6390475000000002e-05
aF3.6387027000000003e-05
aF3.6383593000000003e-05
aF3.6380163e-05
aF3.6376740000000003e-05
aF3.6373318999999998e-05
aF3.6369899000000003e-05
aF3.6366489000000001e-05
aF3.6363087000000002e-05
aF3.6359682999999997e-05
aF3.6356277e-05
aF3.6352878999999998e-05
aF3.6349475e-05
aF3.6346073e-05
aF3.6342664000000002e-05
aF3.6339252999999998e-05
aF3.6335835000000001e-05
aF3.6332414999999999e-05
aF3.6329004000000002e-05
asg27
(lp36
F3.0688548000000001e-05
aF3.0680097000000003e-05
aF3.0671035999999997e-05
aF3.0662206000000002e-05
aF3.0653396999999999e-05
aF3.0644595999999997e-05
aF3.0635802000000001e-05
aF3.0627017000000003e-05
aF3.0618238999999998e-05
aF3.0609465000000003e-05
aF3.0600698999999997e-05
aF3.0591934999999997e-05
aF3.0583175e-05
aF3.0574417999999999e-05
aF3.0565679e-05
aF3.0556943999999999e-05
aF3.0548210999999997e-05
aF3.0539478000000001e-05
aF3.0530749000000003e-05
aF3.0522021999999997e-05
aF3.0513297999999999e-05
aF3.0504577e-05
aF3.0495862e-05
aF3.0487147e-05
aF3.0478434999999998e-05
aF3.0469724e-05
aF3.0461015e-05
aF3.0452310000000001e-05
aF3.0443619999999999e-05
aF3.0434930000000001e-05
aF3.0426241999999998e-05
aF3.0417556000000001e-05
aF3.0408871e-05
aF3.0400185999999999e-05
aF3.0391504999999999e-05
aF3.0382823999999999e-05
aF3.0374147999999999e-05
aF3.0365472999999999e-05
aF3.0356799000000001e-05
aF3.0348126999999999e-05
aF3.0339456999999999e-05
aF3.0330789000000001e-05
aF3.0322122999999998e-05
aF3.0313454000000001e-05
aF3.0304797e-05
aF3.0296130000000002e-05
aF3.0287475999999999e-05
aF3.027882e-05
aF3.0270159000000002e-05
aF3.0261512000000001e-05
aF3.0252865000000001e-05
aF3.0244218e-05
aF3.0235571e-05
aF3.0226926000000001e-05
aF3.0218285000000001e-05
aF3.0209653000000001e-05
aF3.0201022000000001e-05
aF3.0192392000000001e-05
aF3.0183765000000002e-05
aF3.0175138999999998e-05
aF3.0166515000000001e-05
aF3.0157895000000001e-05
aF3.0149278999999999e-05
aF3.0140664999999999e-05
aF3.0132053e-05
aF3.0123441999999998e-05
aF3.0114832999999999e-05
aF3.0106225000000002e-05
aF3.0097619e-05
aF3.0089016999999999e-05
aF3.0080418e-05
aF3.0071822999999999e-05
aF3.0063232000000001e-05
aF3.0054642999999999e-05
aF3.0046057999999999e-05
aF3.0037475e-05
aF3.0028894999999999e-05
aF3.0020317000000001e-05
aF3.0011739999999999e-05
aF3.0003167000000001e-05
aF2.9994599999999999e-05
aF2.9986044000000001e-05
aF2.9977490000000002e-05
aF2.9968938000000001e-05
aF2.9960388999999999e-05
aF2.9951845e-05
aF2.9943303999999999e-05
aF2.9934764000000002e-05
aF2.9926225999999999e-05
aF2.9917689999999999e-05
aF2.9909156000000001e-05
aF2.9900623999999999e-05
aF2.9892095000000001e-05
aF2.9883566999999999e-05
aF2.9875041999999999e-05
aF2.9866517999999999e-05
aF2.9857997e-05
aF2.9849477999999999e-05
aF2.9840963999999999e-05
aF2.9832452000000001e-05
aF2.9823949000000002e-05
aF2.9815449999999999e-05
aF2.9806953999999999e-05
aF2.9798463000000002e-05
aF2.9789974e-05
aF2.9781489999999999e-05
aF2.9773008e-05
aF2.9764528999999999e-05
aF2.9756052e-05
aF2.9747577e-05
aF2.9739108e-05
aF2.9730640999999998e-05
aF2.9722176999999999e-05
aF2.9713714000000001e-05
aF2.9705256000000001e-05
aF2.9696800999999999e-05
aF2.9688352000000001e-05
aF2.9679905000000001e-05
aF2.9671459e-05
aF2.9663016000000001e-05
aF2.9654579000000002e-05
aF2.9646144000000001e-05
aF2.9637714000000001e-05
aF2.9629285999999999e-05
aF2.962086e-05
aF2.9612435e-05
aF2.9604011999999999e-05
aF2.9595590000000001e-05
aF2.9587170000000002e-05
aF2.9578752000000001e-05
aF2.9570335e-05
aF2.956192e-05
aF2.9553506000000001e-05
aF2.9545091000000001e-05
aF2.9536673000000001e-05
aF2.9528265000000001e-05
aF2.9519860999999998e-05
aF2.9511461e-05
aF2.9503063000000001e-05
aF2.9494666000000001e-05
aF2.9486269000000001e-05
aF2.9477874999999999e-05
aF2.9469478999999999e-05
aF2.9461085000000001e-05
aF2.9452694e-05
asg28
(lp37
F220
aF197
aF206
aF208
aF207
aF208
aF207
aF208
aF207
aF208
aF207
aF208
aF207
aF208
aF207
aF208
aF207
aF208
aF207
aF208
aF207
aF208
aF207
aF208
aF207
aF208
aF207
aF208
aF207
aF208
aF207
aF208
aF207
aF208
aF207
aF207
aF208
aF207
aF207
aF207
aF207
aF207
aF208
aF207
aF207
aF207
aF207
aF207
aF207
aF207
aF207
aF207
aF207
aF207
aF207
aF207
aF207
aF207
aF207
aF207
aF207
aF207
aF207
aF207
aF207
aF207
aF207
aF207
aF207
aF207
aF207
aF207
aF207
aF207
aF207
aF207
aF207
aF207
aF207
aF207
aF207
aF207
aF207
aF207
aF207
aF207
aF207
aF207
aF207
aF207
aF207
aF207
aF207
aF207
aF207
aF207
aF207
aF207
aF207
aF207
aF207
aF207
aF207
aF207
aF207
aF207
aF207
aF207
aF207
aF207
aF207
aF207
aF207
aF207
aF207
aF207
aF207
aF207
aF207
aF207
aF207
aF207
aF207
aF207
aF207
aF207
aF207
aF207
aF207
aF207
aF207
aF207
aF207
aF207
aF208
aF207
aF208
aF207
aF208
aF207
aF208
aF207
aF207
aF207
aF100
asS'p'
(lp38
F5.8544449999999998e-05
aF3.5983511000000002e-05
aF2.4486049999999999e-05
aF2.1060606999999999e-05
aF1.9557652999999999e-05
aF1.8768132000000002e-05
aF1.8300369e-05
aF1.7995061e-05
aF1.7781114999999999e-05
aF1.7623476999999999e-05
aF1.7503303e-05
aF1.7408652e-05
aF1.7332406e-05
aF1.7270194e-05
aF1.7218296e-05
aF1.7175066000000001e-05
aF1.7138095000000001e-05
aF1.7106689e-05
aF1.7079291e-05
aF1.7055633e-05
aF1.6995950000000001e-05
aF1.6947030000000001e-05
aF1.6922229000000001e-05
aF1.6898595000000001e-05
aF1.6883045000000001e-05
aF1.6869220999999998e-05
aF1.6856275000000002e-05
aF1.6849508e-05
aF1.6846274000000001e-05
aF1.6843759000000001e-05
aF1.6843119e-05
aF1.6814918999999999e-05
aF1.6792940999999999e-05
aF1.6793161e-05
aF1.6805370000000001e-05
aF1.6814029000000001e-05
aF1.6818807000000001e-05
aF1.6821498999999999e-05
aF1.6823275e-05
aF1.6823645999999998e-05
aF1.6821734000000002e-05
aF1.6792609e-05
aF1.6782398000000002e-05
aF1.6727553e-05
aF1.6671084999999999e-05
aF1.6649289e-05
aF1.6643156999999999e-05
aF1.6642682e-05
aF1.6642971e-05
aF1.6645743999999999e-05
aF1.6649282000000001e-05
aF1.6653566e-05
aF1.6659139000000001e-05
aF1.6664303000000001e-05
aF1.6669248000000001e-05
aF1.6675506e-05
aF1.6680384e-05
aF1.6684146000000001e-05
aF1.6688072e-05
aF1.6691003000000002e-05
aF1.6693189000000001e-05
aF1.6694708999999999e-05
aF1.6696006e-05
aF1.6697586999999999e-05
aF1.6698241000000001e-05
aF1.6698990999999999e-05
aF1.6675562999999999e-05
aF1.6617199000000001e-05
aF1.6516750000000001e-05
aF1.6433407e-05
aF1.6370676e-05
aF1.6302205000000002e-05
aF1.6224962000000001e-05
aF1.6181831e-05
aF1.6174636000000001e-05
aF1.6148101000000002e-05
aF1.6056760999999998e-05
aF1.5958833000000001e-05
aF1.5911864000000001e-05
aF1.5883174999999999e-05
aF1.5877339000000001e-05
aF1.5870659000000002e-05
aF1.5862414000000001e-05
aF1.5860786000000001e-05
aF1.5864273999999999e-05
aF1.587171e-05
aF1.5879115999999999e-05
aF1.5820376999999999e-05
aF1.5757832000000001e-05
aF1.5720180000000001e-05
aF1.5699081000000002e-05
aF1.5701616999999999e-05
aF1.5711807999999999e-05
aF1.5718521999999999e-05
aF1.5730105000000001e-05
aF1.5742021e-05
aF1.5751952999999999e-05
aF1.5760884e-05
aF1.5770295e-05
aF1.5783929999999998e-05
aF1.5796756000000001e-05
aF1.5809732999999999e-05
aF1.5823569000000001e-05
aF1.5841120000000001e-05
aF1.5861183999999999e-05
aF1.5881780999999999e-05
aF1.5903068999999999e-05
aF1.5924333999999999e-05
aF1.5940372000000001e-05
aF1.5936302000000001e-05
aF1.5942631e-05
aF1.5966922000000001e-05
aF1.5988618000000001e-05
aF1.6007654999999999e-05
aF1.6024784999999998e-05
aF1.6040824e-05
aF1.6056969000000001e-05
aF1.6071886999999999e-05
aF1.6086187e-05
aF1.610003e-05
aF1.6114511999999999e-05
aF1.6131191000000001e-05
aF1.6148567e-05
aF1.6166847000000001e-05
aF1.6184861000000002e-05
aF1.6201903999999999e-05
aF1.6218416000000001e-05
aF1.6234793999999999e-05
aF1.6250798000000002e-05
aF1.6266313999999999e-05
aF1.6280862000000001e-05
aF1.6296202e-05
aF1.6311796000000001e-05
aF1.6326905000000002e-05
aF1.6342123e-05
aF1.6356202999999999e-05
aF1.6369889000000001e-05
aF1.6381922999999999e-05
aF1.6393805999999999e-05
aF1.6404658000000001e-05
aF1.6416211000000001e-05
aF1.6426124000000001e-05
aF1.6435822e-05
aF1.6418933e-05
aF1.6400206999999998e-05
asg29
(lp39
F1.4392258e-08
aF1.4388099e-08
aF1.4383655000000001e-08
aF1.4379318e-08
aF1.4374987e-08
aF1.4370661e-08
aF1.436634e-08
aF1.4362022e-08
aF1.4357707e-08
aF1.4353395e-08
aF1.4349085000000001e-08
aF1.4344777e-08
aF1.4340469e-08
aF1.4336163000000001e-08
aF1.4331859e-08
aF1.4327555e-08
aF1.4323252e-08
aF1.4318951e-08
aF1.4314651999999999e-08
aF1.4310354999999999e-08
aF1.4306061e-08
aF1.4301770000000001e-08
aF1.429748e-08
aF1.4293191999999999e-08
aF1.4288904999999999e-08
aF1.4284617999999999e-08
aF1.4280333e-08
aF1.4276049000000001e-08
aF1.4271765e-08
aF1.4267483e-08
aF1.4263201e-08
aF1.4258923999999999e-08
aF1.4254646999999999e-08
aF1.4250372e-08
aF1.4246098e-08
aF1.4241824e-08
aF1.4237553e-08
aF1.4233282e-08
aF1.4229013e-08
aF1.4224745e-08
aF1.422048e-08
aF1.4216216999999999e-08
aF1.4211955999999999e-08
aF1.4207693e-08
aF1.4203439999999999e-08
aF1.4199178000000001e-08
aF1.4194925e-08
aF1.4190671e-08
aF1.418641e-08
aF1.4182159e-08
aF1.4177908e-08
aF1.4173658e-08
aF1.4169406e-08
aF1.4165157e-08
aF1.416091e-08
aF1.4156665e-08
aF1.4152421e-08
aF1.4148177999999999e-08
aF1.4143937000000001e-08
aF1.4139697000000001e-08
aF1.4135457999999999e-08
aF1.4131221e-08
aF1.4126986e-08
aF1.4122752e-08
aF1.4118523999999999e-08
aF1.4114296e-08
aF1.4110069000000001e-08
aF1.4105843e-08
aF1.4101619e-08
aF1.4097397e-08
aF1.4093176000000001e-08
aF1.4088957000000001e-08
aF1.4084741e-08
aF1.4080525e-08
aF1.4076311e-08
aF1.4072098e-08
aF1.4067888e-08
aF1.4063681e-08
aF1.4059476e-08
aF1.4055274e-08
aF1.4051073e-08
aF1.4046872999999999e-08
aF1.4042674000000001e-08
aF1.4038475000000001e-08
aF1.4034277999999999e-08
aF1.4030082e-08
aF1.4025887e-08
aF1.4021695e-08
aF1.4017505e-08
aF1.4013315999999999e-08
aF1.4009129e-08
aF1.4004942e-08
aF1.4000756999999999e-08
aF1.3996572e-08
aF1.3992389e-08
aF1.3988207000000001e-08
aF1.3984028e-08
aF1.3979849e-08
aF1.3975671e-08
aF1.3971496999999999e-08
aF1.3967323999999999e-08
aF1.3963152e-08
aF1.395898e-08
aF1.3954810999999999e-08
aF1.3950643000000001e-08
aF1.3946479e-08
aF1.3942316e-08
aF1.3938154e-08
aF1.3933994000000001e-08
aF1.3929836e-08
aF1.3925680000000001e-08
aF1.3921523999999999e-08
aF1.3917369e-08
aF1.3913214999999999e-08
aF1.3909062000000001e-08
aF1.3904910999999999e-08
aF1.3900759999999999e-08
aF1.3896611e-08
aF1.3892463e-08
aF1.3888316e-08
aF1.3884169e-08
aF1.3880024e-08
aF1.3875879999999999e-08
aF1.3871737000000001e-08
aF1.3867594e-08
aF1.3863453e-08
aF1.3859313000000001e-08
aF1.3855174e-08
aF1.3851035999999999e-08
aF1.3846899999999999e-08
aF1.3842765e-08
aF1.3838631000000001e-08
aF1.3834497e-08
aF1.3830362e-08
aF1.3826223999999999e-08
aF1.3822095e-08
aF1.3817968e-08
aF1.3813842e-08
aF1.3809718e-08
aF1.3805593000000001e-08
aF1.3801467999999999e-08
aF1.3797345e-08
aF1.3793224e-08
aF1.3789105000000001e-08
aF1.3784988e-08
asg30
(lp40
F2.2694676999999999e-08
aF2.2693004999999998e-08
aF2.2690639999999999e-08
aF2.2688584999999999e-08
aF2.2686528999999999e-08
aF2.2684484999999999e-08
aF2.2682441999999999e-08
aF2.2680395999999999e-08
aF2.2678349999999999e-08
aF2.2676303000000001e-08
aF2.2674257000000001e-08
aF2.2672209e-08
aF2.2670167000000001e-08
aF2.2668124999999998e-08
aF2.2666080999999999e-08
aF2.2664033000000001e-08
aF2.2661982999999999e-08
aF2.2659934000000001e-08
aF2.2657895e-08
aF2.2655856000000002e-08
aF2.2653816e-08
aF2.2651777999999999e-08
aF2.2649740000000001e-08
aF2.2647703e-08
aF2.264567e-08
aF2.2643648000000001e-08
aF2.2641625000000001e-08
aF2.2639599000000001e-08
aF2.2637578999999999e-08
aF2.2635564000000002e-08
aF2.2633550999999999e-08
aF2.2631537999999999e-08
aF2.2629532000000001e-08
aF2.2627530000000002e-08
aF2.2625532e-08
aF2.2623531000000001e-08
aF2.2621527e-08
aF2.2619522e-08
aF2.2617514999999999e-08
aF2.2615506e-08
aF2.2613496999999998e-08
aF2.2611492000000001e-08
aF2.2609485e-08
aF2.2607475000000001e-08
aF2.2605468e-08
aF2.2603461999999999e-08
aF2.2601456000000001e-08
aF2.2599450000000001e-08
aF2.2597442999999999e-08
aF2.2595437999999999e-08
aF2.2593431000000001e-08
aF2.2591421999999999e-08
aF2.2589414000000001e-08
aF2.2587410000000001e-08
aF2.2585412999999999e-08
aF2.2583416000000001e-08
aF2.2581418e-08
aF2.2579422999999999e-08
aF2.2577429999999999e-08
aF2.2575434999999998e-08
aF2.2573437e-08
aF2.2571437000000001e-08
aF2.2569437999999999e-08
aF2.2567443999999999e-08
aF2.2565449999999998e-08
aF2.2563457999999999e-08
aF2.2561466999999999e-08
aF2.2559472999999999e-08
aF2.2557478000000002e-08
aF2.255548e-08
aF2.2553484999999999e-08
aF2.2551489000000002e-08
aF2.2549491e-08
aF2.2547489e-08
aF2.2545492999999999e-08
aF2.2543505000000001e-08
aF2.2541514999999999e-08
aF2.2539531999999998e-08
aF2.2537547000000001e-08
aF2.2535563e-08
aF2.2533575999999999e-08
aF2.2531597e-08
aF2.2529634e-08
aF2.2527668999999999e-08
aF2.2525703000000001e-08
aF2.2523741000000001e-08
aF2.2521782000000001e-08
aF2.2519825e-08
aF2.2517872999999999e-08
aF2.2515918999999999e-08
aF2.2513977000000002e-08
aF2.2512034000000001e-08
aF2.2510091e-08
aF2.2508149e-08
aF2.2506203999999999e-08
aF2.2504257e-08
aF2.2502310000000001e-08
aF2.2500360999999999e-08
aF2.2498408999999999e-08
aF2.2496455000000001e-08
aF2.2494501e-08
aF2.2492548e-08
aF2.2490596e-08
aF2.2488647e-08
aF2.2486697000000001e-08
aF2.2484746000000001e-08
aF2.2482796000000001e-08
aF2.2480857999999999e-08
aF2.247892e-08
aF2.2476983000000001e-08
aF2.2475045999999999e-08
aF2.2473112000000001e-08
aF2.2471178e-08
aF2.2469247e-08
aF2.2467317e-08
aF2.2465386e-08
aF2.2463456e-08
aF2.2461524e-08
aF2.2459589999999999e-08
aF2.2457664e-08
aF2.2455742e-08
aF2.2453819999999999e-08
aF2.2451899999999999e-08
aF2.2449979999999999e-08
aF2.2448061e-08
aF2.244614e-08
aF2.2444221e-08
aF2.2442301e-08
aF2.2440385999999998e-08
aF2.2438473000000001e-08
aF2.2436562e-08
aF2.2434648999999999e-08
aF2.2432746000000002e-08
aF2.2430846000000001e-08
aF2.2428947000000002e-08
aF2.2427055000000001e-08
aF2.2425165e-08
aF2.2423279000000001e-08
aF2.2421392999999999e-08
aF2.2419512000000002e-08
aF2.2417632000000001e-08
aF2.2415751e-08
aF2.2413871e-08
aF2.2411992e-08
aF2.2410118000000001e-08
asg31
(lp41
F2
aF2
aF2
aF2
aF2
aF2
aF2
aF2
aF2
aF2
aF2
aF2
aF2
aF2
aF2
aF2
aF2
aF2
aF2
aF2
aF2
aF2
aF2
aF2
aF2
aF2
aF2
aF2
aF2
aF2
aF2
aF2
aF2
aF2
aF2
aF2
aF2
aF2
aF2
aF2
aF2
aF2
aF2
aF2
aF2
aF2
aF2
aF2
aF2
aF2
aF2
aF2
aF2
aF2
aF2
aF2
aF2
aF2
aF2
aF2
aF2
aF2
aF2
aF2
aF2
aF2
aF2
aF2
aF2
aF2
aF2
aF2
aF2
aF2
aF2
aF2
aF2
aF2
aF2
aF2
aF2
aF2
aF2
aF2
aF2
aF2
aF2
aF2
aF2
aF2
aF2
aF2
aF2
aF2
aF2
aF2
aF2
aF2
aF2
aF2
aF2
aF2
aF2
aF2
aF2
aF2
aF2
aF2
aF2
aF2
aF2
aF2
aF2
aF2
aF2
aF2
aF2
aF2
aF2
aF2
aF2
aF2
aF2
aF2
aF2
aF2
aF2
aF2
aF2
aF2
aF2
aF2
aF2
aF2
aF2
aF2
aF2
aF2
aF2
aF2
aF2
aF2
aF2
aF2
aF2
assg8
(lp42
sg10
(lp43
F3.0005000000000002
aF3.0009999999999999
aF3.0015000000000001
aF3.0019999999999998
aF3.0024999999999999
aF3.0030000000000001
aF3.0034999999999998
aF3.004
aF3.0045000000000002
aF3.0049999999999999
aF3.0055000000000001
aF3.0059999999999998
aF3.0065
aF3.0070000000000001
aF3.0074999999999998
aF3.008
aF3.0085000000000002
aF3.0089999999999999
aF3.0095000000000001
aF3.0099999999999998
aF3.0105
aF3.0110000000000001
aF3.0114999999999998
aF3.012
aF3.0125000000000002
aF3.0129999999999999
aF3.0135000000000001
aF3.0139999999999998
aF3.0145
aF3.0150000000000001
aF3.0154999999999998
aF3.016
aF3.0165000000000002
aF3.0169999999999999
aF3.0175000000000001
aF3.0179999999999998
aF3.0185
aF3.0190000000000001
aF3.0194999999999999
aF3.02
aF3.0205000000000002
aF3.0209999999999999
aF3.0215000000000001
aF3.0219999999999998
aF3.0225
aF3.0230000000000001
aF3.0234999999999999
aF3.024
aF3.0245000000000002
aF3.0249999999999999
aF3.0255000000000001
aF3.0259999999999998
aF3.0265
aF3.0270000000000001
aF3.0274999999999999
aF3.028
aF3.0285000000000002
aF3.0289999999999999
aF3.0295000000000001
aF3.0299999999999998
aF3.0305
aF3.0310000000000001
aF3.0314999999999999
aF3.032
aF3.0325000000000002
aF3.0329999999999999
aF3.0335000000000001
aF3.0339999999999998
aF3.0345
aF3.0350000000000001
aF3.0354999999999999
aF3.036
aF3.0365000000000002
aF3.0369999999999999
aF3.0375000000000001
aF3.0379999999999998
aF3.0385
aF3.0390000000000001
aF3.0394999999999999
aF3.04
aF3.0405000000000002
aF3.0409999999999999
aF3.0415000000000001
aF3.0419999999999998
aF3.0425
aF3.0430000000000001
aF3.0434999999999999
aF3.044
aF3.0445000000000002
aF3.0449999999999999
aF3.0455000000000001
aF3.0459999999999998
aF3.0465
aF3.0470000000000002
aF3.0474999999999999
aF3.048
aF3.0485000000000002
aF3.0489999999999999
aF3.0495000000000001
aF3.0499999999999998
aF3.0505
aF3.0510000000000002
aF3.0514999999999999
aF3.052
aF3.0525000000000002
aF3.0529999999999999
aF3.0535000000000001
aF3.0539999999999998
aF3.0545
aF3.0550000000000002
aF3.0554999999999999
aF3.056
aF3.0565000000000002
aF3.0569999999999999
aF3.0575000000000001
aF3.0579999999999998
aF3.0585
aF3.0590000000000002
aF3.0594999999999999
aF3.0600000000000001
aF3.0605000000000002
aF3.0609999999999999
aF3.0615000000000001
aF3.0619999999999998
aF3.0625
aF3.0630000000000002
aF3.0634999999999999
aF3.0640000000000001
aF3.0644999999999998
aF3.0649999999999999
aF3.0655000000000001
aF3.0659999999999998
aF3.0665
aF3.0670000000000002
aF3.0674999999999999
aF3.0680000000000001
aF3.0684999999999998
aF3.069
aF3.0695000000000001
aF3.0699999999999998
aF3.0705
aF3.0710000000000002
aF3.0714999999999999
aF3.0720000000000001
aF3.0724999999999998
assS'5'
(dp44
g3
I5
sg4
(dp45
sg6
(dp46
sg8
(lp47
sg10
(lp48
ssS'4'
(dp49
g3
I4
sg4
(dp50
S'cpu'
p51
I00
sS'clock'
p52
I00
ssg6
(dp53
g51
(lp54
F0.52000000000000002
aF0.22999999999999998
aF0.23999999999999999
aF0.23999999999999999
aF0.22999999999999998
aF0.31000000000000005
aF0.25
aF0.23999999999999977
aF0.24000000000000021
aF0.25
aF0.24000000000000021
aF0.25
aF0.23999999999999977
aF0.22999999999999998
aF0.25
aF0.25
aF0.24000000000000021
aF0.24000000000000021
aF0.23999999999999932
aF0.26000000000000068
aF0.25
aF0.23999999999999932
aF0.24000000000000021
aF0.24000000000000021
aF0.25999999999999979
aF0.24000000000000021
aF0.25
aF0.24000000000000021
aF0.23999999999999932
aF0.25
aF0.25
aF0.2400000000000011
aF0.23999999999999844
aF0.24000000000000021
aF0.25999999999999979
aF0.24000000000000021
aF0.25
aF0.24000000000000021
aF0.24000000000000021
aF0.23000000000000043
aF0.25999999999999979
aF0.25
aF0.24000000000000021
aF0.24000000000000021
aF0.25
aF0.25
aF0.25
aF0.24000000000000021
aF0.23999999999999844
aF0.24000000000000021
aF0.27000000000000135
aF0.23999999999999844
aF0.25
aF0.24000000000000021
aF0.24000000000000021
aF0.25
aF0.25
aF0.24000000000000021
aF0.24000000000000021
aF0.25
aF0.25
aF0.25
aF0.24000000000000021
aF0.25
aF0.24000000000000021
aF0.25
aF0.25
aF0.23999999999999844
aF0.25
aF0.24000000000000199
aF0.25
aF0.25
aF0.25
aF0.23999999999999844
aF0.24000000000000199
aF0.25
aF0.25
aF0.23999999999999844
aF0.24000000000000199
aF0.23999999999999844
aF0.26000000000000156
aF0.23999999999999844
aF0.25
aF0.23999999999999844
aF0.24000000000000199
aF0.25999999999999801
aF0.24000000000000199
aF0.25
aF0.23999999999999844
aF0.24000000000000199
aF0.25
aF0.25
aF0.23999999999999844
aF0.25
aF0.24000000000000199
aF0.25
aF0.25
aF0.23999999999999844
aF0.23999999999999844
aF0.23000000000000043
aF0.26000000000000156
aF0.23999999999999844
aF0.25
aF0.24000000000000199
aF0.23999999999999844
aF0.26000000000000156
aF0.23999999999999844
aF0.24000000000000199
aF0.23999999999999844
aF0.24000000000000199
aF0.25999999999999801
aF0.24000000000000199
aF0.25
aF0.23999999999999844
aF0.23999999999999844
aF0.25
aF0.24000000000000199
aF0.25
aF0.23999999999999844
aF0.24000000000000199
aF0.25
aF0.25
aF0.23999999999999844
aF0.24000000000000199
aF0.23999999999999844
aF0.25
aF0.25
aF0.24000000000000199
aF0.23999999999999844
aF0.23999999999999844
aF0.25999999999999801
aF0.24000000000000199
aF0.24000000000000199
aF0.25
aF0.24000000000000199
aF0.25
aF0.23999999999999488
aF0.25
aF0.24000000000000199
aF0.24000000000000199
aF0.28999999999999915
aF0.25999999999999801
aF0.25
aF0.24000000000000199
aF0
asg52
(lp55
F1
aF0
aF0
aF1
aF0
aF0
aF0
aF1
aF0
aF0
aF0
aF1
aF0
aF0
aF0
aF1
aF0
aF0
aF0
aF1
aF0
aF0
aF0
aF1
aF0
aF0
aF0
aF1
aF0
aF0
aF0
aF0
aF1
aF0
aF0
aF0
aF1
aF0
aF0
aF0
aF1
aF0
aF0
aF0
aF1
aF0
aF0
aF0
aF1
aF0
aF0
aF0
aF1
aF0
aF0
aF0
aF1
aF0
aF0
aF0
aF1
aF0
aF0
aF0
aF1
aF0
aF0
aF0
aF1
aF0
aF0
aF0
aF1
aF0
aF0
aF0
aF1
aF0
aF0
aF0
aF1
aF0
aF0
aF0
aF1
aF0
aF0
aF0
aF0
aF1
aF0
aF0
aF0
aF1
aF0
aF0
aF0
aF1
aF0
aF0
aF0
aF1
aF0
aF0
aF0
aF1
aF0
aF0
aF0
aF1
aF0
aF0
aF0
aF1
aF0
aF0
aF0
aF1
aF0
aF0
aF0
aF1
aF0
aF0
aF0
aF1
aF0
aF0
aF0
aF1
aF0
aF0
aF0
aF1
aF0
aF0
aF0
aF0
aF1
aF0
aF0
aF1
aF0
aF0
aF0
assg8
(lp56
sg10
(lp57
F3.0005000000000002
aF3.0009999999999999
aF3.0015000000000001
aF3.0019999999999998
aF3.0024999999999999
aF3.0030000000000001
aF3.0034999999999998
aF3.004
aF3.0045000000000002
aF3.0049999999999999
aF3.0055000000000001
aF3.0059999999999998
aF3.0065
aF3.0070000000000001
aF3.0074999999999998
aF3.008
aF3.0085000000000002
aF3.0089999999999999
aF3.0095000000000001
aF3.0099999999999998
aF3.0105
aF3.0110000000000001
aF3.0114999999999998
aF3.012
aF3.0125000000000002
aF3.0129999999999999
aF3.0135000000000001
aF3.0139999999999998
aF3.0145
aF3.0150000000000001
aF3.0154999999999998
aF3.016
aF3.0165000000000002
aF3.0169999999999999
aF3.0175000000000001
aF3.0179999999999998
aF3.0185
aF3.0190000000000001
aF3.0194999999999999
aF3.02
aF3.0205000000000002
aF3.0209999999999999
aF3.0215000000000001
aF3.0219999999999998
aF3.0225
aF3.0230000000000001
aF3.0234999999999999
aF3.024
aF3.0245000000000002
aF3.0249999999999999
aF3.0255000000000001
aF3.0259999999999998
aF3.0265
aF3.0270000000000001
aF3.0274999999999999
aF3.028
aF3.0285000000000002
aF3.0289999999999999
aF3.0295000000000001
aF3.0299999999999998
aF3.0305
aF3.0310000000000001
aF3.0314999999999999
aF3.032
aF3.0325000000000002
aF3.0329999999999999
aF3.0335000000000001
aF3.0339999999999998
aF3.0345
aF3.0350000000000001
aF3.0354999999999999
aF3.036
aF3.0365000000000002
aF3.0369999999999999
aF3.0375000000000001
aF3.0379999999999998
aF3.0385
aF3.0390000000000001
aF3.0394999999999999
aF3.04
aF3.0405000000000002
aF3.0409999999999999
aF3.0415000000000001
aF3.0419999999999998
aF3.0425
aF3.0430000000000001
aF3.0434999999999999
aF3.044
aF3.0445000000000002
aF3.0449999999999999
aF3.0455000000000001
aF3.0459999999999998
aF3.0465
aF3.0470000000000002
aF3.0474999999999999
aF3.048
aF3.0485000000000002
aF3.0489999999999999
aF3.0495000000000001
aF3.0499999999999998
aF3.0505
aF3.0510000000000002
aF3.0514999999999999
aF3.052
aF3.0525000000000002
aF3.0529999999999999
aF3.0535000000000001
aF3.0539999999999998
aF3.0545
aF3.0550000000000002
aF3.0554999999999999
aF3.056
aF3.0565000000000002
aF3.0569999999999999
aF3.0575000000000001
aF3.0579999999999998
aF3.0585
aF3.0590000000000002
aF3.0594999999999999
aF3.0600000000000001
aF3.0605000000000002
aF3.0609999999999999
aF3.0615000000000001
aF3.0619999999999998
aF3.0625
aF3.0630000000000002
aF3.0634999999999999
aF3.0640000000000001
aF3.0644999999999998
aF3.0649999999999999
aF3.0655000000000001
aF3.0659999999999998
aF3.0665
aF3.0670000000000002
aF3.0674999999999999
aF3.0680000000000001
aF3.0684999999999998
aF3.069
aF3.0695000000000001
aF3.0699999999999998
aF3.0705
aF3.0710000000000002
aF3.0714999999999999
aF3.0720000000000001
aF3.0724999999999998
assS'7'
(dp58
g3
I7
sg4
(dp59
S'max'
p60
I01
sS'mean'
p61
I01
ssg6
(dp62
g60
(lp63
F0.062454255
aF0.062454018
aF0.062453781
aF0.062453544
aF0.062453307
aF0.062453069999999999
aF0.062452832999999999
aF0.062452595999999999
aF0.062452358999999999
aF0.062452121999999999
aF0.062451885999999998
aF0.062451648999999998
aF0.062451412999999997
aF0.062451175999999997
aF0.062450940000000003
aF0.062450704000000003
aF0.062450467000000003
aF0.062450231000000002
aF0.062449995000000001
aF0.062449759000000001
aF0.062449523
aF0.062449286999999999
aF0.062449050999999998
aF0.062448815999999997
aF0.062448579999999997
aF0.062448344000000003
aF0.062448109000000002
aF0.062447873000000001
aF0.062447638
aF0.062447402999999999
aF0.062447166999999998
aF0.062446931999999997
aF0.062446697000000002
aF0.062446462000000001
aF0.062446227
aF0.062445991999999999
aF0.062445756999999998
aF0.062445522000000003
aF0.062445288000000002
aF0.062445053
aF0.062444818999999999
aF0.062444583999999997
aF0.062444350000000003
aF0.062444115000000001
aF0.062443881
aF0.062443646999999998
aF0.062443413000000003
aF0.062443178000000002
aF0.062442944
aF0.062442710999999998
aF0.062442477000000003
aF0.062442243000000001
aF0.062442009
aF0.062441774999999998
aF0.062441542000000003
aF0.062441308000000001
aF0.062441074999999999
aF0.062440840999999997
aF0.062440608000000002
aF0.062440374999999999
aF0.062440140999999998
aF0.062439908000000002
aF0.062439675
aF0.062439441999999998
aF0.062439209000000002
aF0.062438976
aF0.062438743999999997
aF0.062438511000000002
aF0.062438278
aF0.062438045999999997
aF0.062437813000000002
aF0.062437579999999999
aF0.062437347999999997
aF0.062437116000000001
aF0.062436882999999999
aF0.062436651000000003
aF0.062436419
aF0.062436186999999997
aF0.062435955000000001
aF0.062435722999999999
aF0.062435491000000003
aF0.062435259
aF0.062435027999999997
aF0.062434796000000001
aF0.062434563999999998
aF0.062434333000000002
aF0.062434100999999999
aF0.062433870000000002
aF0.062433638
aF0.062433407000000003
aF0.062433176
aF0.062432944999999997
aF0.062432714
aF0.062432482999999997
aF0.062432252000000001
aF0.062432020999999997
aF0.062431790000000001
aF0.062431558999999998
aF0.062431329000000001
aF0.062431097999999997
aF0.062430867000000001
aF0.062430636999999997
aF0.062430406000000001
aF0.062430175999999997
aF0.062429946
aF0.062429716000000003
aF0.062429485
aF0.062429255000000003
aF0.062429024999999999
aF0.062428795000000002
aF0.062428564999999998
aF0.062428335000000001
aF0.062428105999999997
aF0.062427876
aF0.062427646000000003
aF0.062427416999999999
aF0.062427187000000002
aF0.062426957999999998
aF0.062426728000000001
aF0.062426499000000003
aF0.062426269999999999
aF0.062426041000000002
aF0.062425810999999998
aF0.062425582
aF0.062425353000000003
aF0.062425123999999999
aF0.062424895000000001
aF0.062424667000000003
aF0.062424437999999999
aF0.062424209000000001
aF0.062423981000000003
aF0.062423751999999999
aF0.062423524000000001
aF0.062423294999999997
aF0.062423066999999999
aF0.062422838000000001
aF0.062422610000000003
aF0.062422381999999998
aF0.062422154000000001
aF0.062421926000000003
aF0.062421697999999998
aF0.06242147
aF0.062421242000000002
aF0.062421013999999997
aF0.062420785999999999
asg61
(lp64
F0.0093071235000000002
aF0.0093071392999999995
aF0.0093071551000000006
aF0.0093071708999999999
aF0.0093071866999999992
aF0.0093072025000000003
aF0.0093072182999999996
aF0.0093072341000000006
aF0.0093072499
aF0.0093072655999999997
aF0.0093072814000000007
aF0.0093072972
aF0.0093073128999999998
aF0.0093073287000000008
aF0.0093073445000000001
aF0.0093073601999999998
aF0.0093073759999999991
aF0.0093073917000000006
aF0.0093074074999999999
aF0.0093074231999999996
aF0.0093074390000000007
aF0.0093074548
aF0.0093074705999999993
aF0.0093074864000000004
aF0.0093075021999999997
aF0.0093075180000000007
aF0.0093075338000000001
aF0.0093075495999999994
aF0.0093075654000000004
aF0.0093075811000000001
aF0.0093075968999999995
aF0.0093076128000000001
aF0.0093076285999999994
aF0.0093076444000000005
aF0.0093076601999999998
aF0.0093076761000000004
aF0.0093076918999999998
aF0.0093077077000000008
aF0.0093077235000000001
aF0.0093077392999999994
aF0.0093077551000000005
aF0.0093077709999999994
aF0.0093077868000000005
aF0.0093078029000000003
aF0.0093078190000000002
aF0.0093078350000000004
aF0.0093078511000000003
aF0.0093078672000000001
aF0.0093078833
aF0.0093078993999999998
aF0.0093079154000000001
aF0.0093079314999999999
aF0.0093079475999999998
aF0.0093079636
aF0.0093079796999999999
aF0.0093079957000000001
aF0.0093080118
aF0.0093080278000000002
aF0.0093080439000000001
aF0.0093080599000000003
aF0.0093080760000000002
aF0.0093080920000000004
aF0.0093081080000000007
aF0.0093081239999999992
aF0.0093081401000000008
aF0.0093081560999999993
aF0.0093081721999999992
aF0.0093081883000000008
aF0.0093082045000000002
aF0.0093082206999999997
aF0.0093082369000000009
aF0.0093082531000000003
aF0.0093082692999999998
aF0.0093082856000000005
aF0.0093083018
aF0.0093083179999999995
aF0.0093083343999999998
aF0.0093083507000000006
aF0.0093083670999999993
aF0.0093083834000000001
aF0.0093083998000000005
aF0.0093084160999999995
aF0.0093084324000000003
aF0.0093084488000000007
aF0.0093084650999999997
aF0.0093084814000000005
aF0.0093084976999999996
aF0.0093085141
aF0.0093085305000000004
aF0.0093085467999999994
aF0.0093085631999999998
aF0.0093085796000000002
aF0.0093085958999999992
aF0.0093086122999999996
aF0.0093086286000000004
aF0.0093086450000000008
aF0.0093086612999999999
aF0.0093086777000000002
aF0.0093086939999999993
aF0.0093087103000000001
aF0.0093087265999999991
aF0.0093087429999999995
aF0.0093087593000000003
aF0.0093087755999999994
aF0.0093087919000000002
aF0.0093088081999999992
aF0.0093088245
aF0.0093088408000000008
aF0.0093088570999999998
aF0.0093088734000000006
aF0.0093088896999999997
aF0.0093089060000000005
aF0.0093089224000000009
aF0.0093089386999999999
aF0.0093089550000000007
aF0.0093089712999999998
aF0.0093089876000000005
aF0.0093090038
aF0.0093090201000000008
aF0.0093090363999999998
aF0.0093090527000000006
aF0.0093090689999999997
aF0.0093090853000000005
aF0.0093091014999999999
aF0.0093091178000000007
aF0.0093091340000000002
aF0.0093091502999999992
aF0.0093091666
aF0.0093091827999999995
aF0.0093091990000000006
aF0.0093092152999999997
aF0.0093092314999999991
aF0.0093092477000000003
aF0.0093092639999999994
aF0.0093092802000000006
aF0.0093092964
aF0.0093093125999999995
aF0.0093093288000000007
aF0.0093093450000000001
aF0.0093093611999999996
aF0.0093093774000000008
aF0.0093093936000000002
aF0.0093094097999999997
aF0.0093094260000000009
aF0.0093094422999999999
assg8
(lp65
sg10
(lp66
F3.0005000000000002
aF3.0009999999999999
aF3.0015000000000001
aF3.0019999999999998
aF3.0024999999999999
aF3.0030000000000001
aF3.0034999999999998
aF3.004
aF3.0045000000000002
aF3.0049999999999999
aF3.0055000000000001
aF3.0059999999999998
aF3.0065
aF3.0070000000000001
aF3.0074999999999998
aF3.008
aF3.0085000000000002
aF3.0089999999999999
aF3.0095000000000001
aF3.0099999999999998
aF3.0105
aF3.0110000000000001
aF3.0114999999999998
aF3.012
aF3.0125000000000002
aF3.0129999999999999
aF3.0135000000000001
aF3.0139999999999998
aF3.0145
aF3.0150000000000001
aF3.0154999999999998
aF3.016
aF3.0165000000000002
aF3.0169999999999999
aF3.0175000000000001
aF3.0179999999999998
aF3.0185
aF3.0190000000000001
aF3.0194999999999999
aF3.02
aF3.0205000000000002
aF3.0209999999999999
aF3.0215000000000001
aF3.0219999999999998
aF3.0225
aF3.0230000000000001
aF3.0234999999999999
aF3.024
aF3.0245000000000002
aF3.0249999999999999
aF3.0255000000000001
aF3.0259999999999998
aF3.0265
aF3.0270000000000001
aF3.0274999999999999
aF3.028
aF3.0285000000000002
aF3.0289999999999999
aF3.0295000000000001
aF3.0299999999999998
aF3.0305
aF3.0310000000000001
aF3.0314999999999999
aF3.032
aF3.0325000000000002
aF3.0329999999999999
aF3.0335000000000001
aF3.0339999999999998
aF3.0345
aF3.0350000000000001
aF3.0354999999999999
aF3.036
aF3.0365000000000002
aF3.0369999999999999
aF3.0375000000000001
aF3.0379999999999998
aF3.0385
aF3.0390000000000001
aF3.0394999999999999
aF3.04
aF3.0405000000000002
aF3.0409999999999999
aF3.0415000000000001
aF3.0419999999999998
aF3.0425
aF3.0430000000000001
aF3.0434999999999999
aF3.044
aF3.0445000000000002
aF3.0449999999999999
aF3.0455000000000001
aF3.0459999999999998
aF3.0465
aF3.0470000000000002
aF3.0474999999999999
aF3.048
aF3.0485000000000002
aF3.0489999999999999
aF3.0495000000000001
aF3.0499999999999998
aF3.0505
aF3.0510000000000002
aF3.0514999999999999
aF3.052
aF3.0525000000000002
aF3.0529999999999999
aF3.0535000000000001
aF3.0539999999999998
aF3.0545
aF3.0550000000000002
aF3.0554999999999999
aF3.056
aF3.0565000000000002
aF3.0569999999999999
aF3.0575000000000001
aF3.0579999999999998
aF3.0585
aF3.0590000000000002
aF3.0594999999999999
aF3.0600000000000001
aF3.0605000000000002
aF3.0609999999999999
aF3.0615000000000001
aF3.0619999999999998
aF3.0625
aF3.0630000000000002
aF3.0634999999999999
aF3.0640000000000001
aF3.0644999999999998
aF3.0649999999999999
aF3.0655000000000001
aF3.0659999999999998
aF3.0665
aF3.0670000000000002
aF3.0674999999999999
aF3.0680000000000001
aF3.0684999999999998
aF3.069
aF3.0695000000000001
aF3.0699999999999998
aF3.0705
aF3.0710000000000002
aF3.0714999999999999
aF3.0720000000000001
aF3.0724999999999998
assS'6'
(dp67
g3
I6
sg4
(dp68
sg6
(dp69
sg8
(lp70
sg10
(lp71
ss.(dp72
S'1'
(dp73
g3
I1
sS'data'
p74
I2
sS'spec'
p75
(dp76
S'logscale'
p77
I01
sS'name'
p78
S'Custom01_linear'
p79
sS'theTitle'
p80
S'Residuals'
p81
sS'with'
p82
S'lines'
p83
sS'expr'
p84
S''
sS'forbidden'
p85
(lp86
S'final'
p87
aS'iterations'
p88
asS'enabled'
p89
I01
sS'gnuplotCommands'
p90
(lp91
sS'raisit'
p92
I00
sS'titles'
p93
(lp94
sS'alternateAxis'
p95
(lp96
sS'enhanced'
p97
I00
sS'persist'
p98
I01
sS'xlabel'
p99
S'Time [s]'
p100
sS'type'
p101
S'regular'
p102
sS'accumulation'
p103
S'first'
p104
ssS'id'
p105
S'linear'
p106
ssS'3'
(dp107
g3
I3
sg74
I6
sg75
(dp108
g77
I00
sg78
S'Custom03_bounding'
p109
sg80
S'Bounded variables'
p110
sS'with'
p111
g83
sg84
S''
sg85
(lp112
sg89
I01
sg90
(lp113
sg92
I00
sg93
(lp114
sg95
g96
sg97
I00
sg98
I01
sg99
g100
sg101
g102
sg103
g104
ssg105
S'bounding'
p115
ssS'2'
(dp116
g3
I2
sg74
I1
sg75
(dp117
g77
I00
sg78
S'Custom02_continuity'
p118
sg80
S'Continuity'
p119
sS'with'
p120
g83
sg84
S''
sg85
g112
sg89
I01
sg90
(lp121
sg92
I00
sg93
(lp122
sg95
(lp123
S'Global'
p124
asg97
I00
sg98
I01
sg99
g100
sg101
g102
sg103
g104
ssg105
S'continuity'
p125
ss.