(dp1
S'solverFull'
p2
S'icoOversetFoam'
p3
sS'remark'
p4
S'No remark given'
p5
sS'casename'
p6
S'aerofoil-gmsh-overset-rotate'
p7
sS'solver'
p8
g3
sS'commandLine'
p9
g3
sS'hostname'
p10
S'aoba'
p11
sS'lines'
p12
I0
sS'casefullname'
p13
S'/home/mimi/foam/mimi-4.1/run/aerofoil-gmsh-overset-rotate'
p14
sS'starttime'
p15
S'Thu Apr  2 13:46:16 2020'
p16
sS'logfile'
p17
S'./PyFoamRunner.icoOversetFoam.logfile.restart00'
p18
s.