(dp1
S'solverFull'
p2
S'icoFoam'
p3
sS'remark'
p4
S'No remark given'
p5
sS'casename'
p6
S'150ms'
p7
sS'solver'
p8
g3
sS'commandLine'
p9
g3
sS'hostname'
p10
S'aoba'
p11
sS'lines'
p12
I0
sS'casefullname'
p13
S'/home/mimi/foam/mimi-4.1/run/owari/cylinder/single/gmsh/150ms'
p14
sS'starttime'
p15
S'Tue Apr  7 17:25:30 2020'
p16
sS'logfile'
p17
S'./PyFoamRunner.icoFoam.logfile'
p18
s.